target datalayout = "e-m:e-p270:32:32-p271:32:32-p272:64:64-i64:64-i128:128-f80:128-n8:16:32:64-S128"
target triple = "x86_64-pc-linux-gnu"

%struct._object = type { %union.anon, ptr }
%union.anon = type { i64 }
%struct.anon.0 = type { i32, %struct.PyMemAllocatorEx, %struct.PyMemAllocatorEx, %struct.PyMemAllocatorEx }
%struct.PyMemAllocatorEx = type { ptr, ptr, ptr, ptr, ptr }

@_Py_NoneStruct = external global %struct._object, align 8
@FmHook = internal global %struct.anon.0 zeroinitializer, align 8

; Function Attrs: nounwind uwtable
define internal void @fm_remove_hooks() #0 {
  %1 = load i32, ptr @FmHook, align 8, !tbaa !30
  %2 = icmp ne i32 %1, 0
  br i1 %2, label %3, label %4

3:                                                ; preds = %0
  store i32 0, ptr @FmHook, align 8, !tbaa !30
  call void @PyMem_SetAllocator(i32 noundef 0, ptr noundef getelementptr inbounds nuw (%struct.anon.0, ptr @FmHook, i32 0, i32 1))
  call void @PyMem_SetAllocator(i32 noundef 1, ptr noundef getelementptr inbounds nuw (%struct.anon.0, ptr @FmHook, i32 0, i32 2))
  call void @PyMem_SetAllocator(i32 noundef 2, ptr noundef getelementptr inbounds nuw (%struct.anon.0, ptr @FmHook, i32 0, i32 3))
  br label %4

4:                                                ; preds = %3, %0
  ret void
}

; Function Attrs: nounwind uwtable
define internal ptr @remove_mem_hooks(ptr noundef %0, ptr noundef %1) #0 {
  %3 = alloca ptr, align 8
  %4 = alloca ptr, align 8
  store ptr %0, ptr %3, align 8, !tbaa !3
  store ptr %1, ptr %4, align 8, !tbaa !3
  call void @fm_remove_hooks()
  ret ptr @_Py_NoneStruct
}