; Function Attrs: nounwind uwtable
define internal noundef nonnull ptr @remove_mem_hooks(ptr readnone captures(none) %0, ptr readnone captures(none) %1) #0 {
  %3 = load i32, ptr @FmHook, align 8, !tbaa !6
  %.not.i = icmp eq i32 %3, 0
  br i1 %.not.i, label %fm_remove_hooks.exit, label %4

4:                                                ; preds = %2
  store i32 0, ptr @FmHook, align 8, !tbaa !6
  tail call void @PyMem_SetAllocator(i32 noundef 0, ptr noundef nonnull getelementptr inbounds nuw (i8, ptr @FmHook, i64 8)) #4
  tail call void @PyMem_SetAllocator(i32 noundef 1, ptr noundef nonnull getelementptr inbounds nuw (i8, ptr @FmHook, i64 48)) #4
  tail call void @PyMem_SetAllocator(i32 noundef 2, ptr noundef nonnull getelementptr inbounds nuw (i8, ptr @FmHook, i64 88)) #4
  br label %fm_remove_hooks.exit

fm_remove_hooks.exit:                             ; preds = %2, %4
  ret ptr @_Py_NoneStruct
}